target datalayout = "e-m:e-p270:32:32-p271:32:32-p272:64:64-i64:64-i128:128-f80:128-n8:16:32:64-S128"
target triple = "x86_64-pc-linux-gnu"

%class.libraw_static_table_t = type <{ ptr, i32, [4 x i8] }>

@_ZN6LibRaw22tagtype_dataunit_bytesE = external global %class.libraw_static_table_t, align 8

; Function Attrs: mustprogress nounwind uwtable
define linkonce_odr noundef i32 @_ZNK21libraw_static_table_tixEj(ptr noundef nonnull align 8 dereferenceable(12) %0, i32 noundef %1) #0 comdat align 2 {
  %3 = alloca i32, align 4
  %4 = alloca ptr, align 8
  %5 = alloca i32, align 4
  store ptr %0, ptr %4, align 8, !tbaa !153
  store i32 %1, ptr %5, align 4, !tbaa !12
  %6 = load ptr, ptr %4, align 8
  %7 = load i32, ptr %5, align 4, !tbaa !12
  %8 = getelementptr inbounds nuw %class.libraw_static_table_t, ptr %6, i32 0, i32 1
  %9 = load i32, ptr %8, align 8, !tbaa !155
  %10 = icmp ult i32 %7, %9
  br i1 %10, label %11, label %18

11:                                               ; preds = %2
  %12 = getelementptr inbounds nuw %class.libraw_static_table_t, ptr %6, i32 0, i32 0
  %13 = load ptr, ptr %12, align 8, !tbaa !157
  %14 = load i32, ptr %5, align 4, !tbaa !12
  %15 = zext i32 %14 to i64
  %16 = getelementptr inbounds nuw i32, ptr %13, i64 %15
  %17 = load i32, ptr %16, align 4, !tbaa !12
  store i32 %17, ptr %3, align 4
  br label %32

18:                                               ; preds = %2
  %19 = getelementptr inbounds nuw %class.libraw_static_table_t, ptr %6, i32 0, i32 1
  %20 = load i32, ptr %19, align 8, !tbaa !155
  %21 = icmp ugt i32 %20, 0
  br i1 %21, label %22, label %31

22:                                               ; preds = %18
  %23 = getelementptr inbounds nuw %class.libraw_static_table_t, ptr %6, i32 0, i32 0
  %24 = load ptr, ptr %23, align 8, !tbaa !157
  %25 = icmp ne ptr %24, null
  br i1 %25, label %26, label %31

26:                                               ; preds = %22
  %27 = getelementptr inbounds nuw %class.libraw_static_table_t, ptr %6, i32 0, i32 0
  %28 = load ptr, ptr %27, align 8, !tbaa !157
  %29 = getelementptr inbounds i32, ptr %28, i64 0
  %30 = load i32, ptr %29, align 4, !tbaa !12
  store i32 %30, ptr %3, align 4
  br label %32

31:                                               ; preds = %22, %18
  store i32 0, ptr %3, align 4
  br label %32

32:                                               ; preds = %31, %26, %11
  %33 = load i32, ptr %3, align 4
  ret i32 %33
}

; Function Attrs: mustprogress uwtable
define noundef signext i16 @_ZN6LibRaw9tiff_sgetEjPhjPxPjS2_S1_S2_Pi(ptr noundef nonnull align 8 dereferenceable(767680) %0, i32 noundef %1, ptr noundef %2, i32 noundef %3, ptr noundef %4, ptr noundef %5, ptr noundef %6, ptr noundef %7, ptr noundef %8, ptr noundef %9) #3 align 2 {
  %11 = alloca i16, align 2
  %12 = alloca ptr, align 8
  %13 = alloca i32, align 4
  %14 = alloca ptr, align 8
  %15 = alloca i32, align 4
  %16 = alloca ptr, align 8
  %17 = alloca ptr, align 8
  %18 = alloca ptr, align 8
  %19 = alloca ptr, align 8
  %20 = alloca ptr, align 8
  %21 = alloca ptr, align 8
  %22 = alloca ptr, align 8
  %23 = alloca i32, align 4
  store ptr %0, ptr %12, align 8, !tbaa !18
  store i32 %1, ptr %13, align 4, !tbaa !12
  store ptr %2, ptr %14, align 8, !tbaa !10
  store i32 %3, ptr %15, align 4, !tbaa !12
  store ptr %4, ptr %16, align 8, !tbaa !149
  store ptr %5, ptr %17, align 8, !tbaa !151
  store ptr %6, ptr %18, align 8, !tbaa !151
  store ptr %7, ptr %19, align 8, !tbaa !149
  store ptr %8, ptr %20, align 8, !tbaa !151
  store ptr %9, ptr %21, align 8, !tbaa !151
  %24 = load ptr, ptr %12, align 8
  call void @llvm.lifetime.start.p0(i64 8, ptr %22) #18
  %25 = load ptr, ptr %14, align 8, !tbaa !10
  %26 = load ptr, ptr %16, align 8, !tbaa !149
  %27 = load i64, ptr %26, align 8, !tbaa !152
  %28 = getelementptr inbounds i8, ptr %25, i64 %27
  store ptr %28, ptr %22, align 8, !tbaa !10
  %29 = load ptr, ptr %16, align 8, !tbaa !149
  %30 = load i64, ptr %29, align 8, !tbaa !152
  %31 = add nsw i64 %30, 12
  %32 = load i32, ptr %15, align 4, !tbaa !12
  %33 = zext i32 %32 to i64
  %34 = icmp sgt i64 %31, %33
  br i1 %34, label %39, label %35

35:                                               ; preds = %10
  %36 = load ptr, ptr %16, align 8, !tbaa !149
  %37 = load i64, ptr %36, align 8, !tbaa !152
  %38 = icmp slt i64 %37, 0
  br i1 %38, label %39, label %40

39:                                               ; preds = %35, %10
  store i16 -1, ptr %11, align 2
  store i32 1, ptr %23, align 4
  br label %102

40:                                               ; preds = %35
  %41 = load ptr, ptr %22, align 8, !tbaa !10
  %42 = call noundef zeroext i16 @_ZN6LibRaw5sget2EPh(ptr noundef nonnull align 8 dereferenceable(767680) %24, ptr noundef %41)
  %43 = zext i16 %42 to i32
  %44 = load ptr, ptr %17, align 8, !tbaa !151
  store i32 %43, ptr %44, align 4, !tbaa !12
  %45 = load ptr, ptr %22, align 8, !tbaa !10
  %46 = getelementptr inbounds i8, ptr %45, i64 2
  store ptr %46, ptr %22, align 8, !tbaa !10
  %47 = load ptr, ptr %22, align 8, !tbaa !10
  %48 = call noundef zeroext i16 @_ZN6LibRaw5sget2EPh(ptr noundef nonnull align 8 dereferenceable(767680) %24, ptr noundef %47)
  %49 = zext i16 %48 to i32
  %50 = load ptr, ptr %18, align 8, !tbaa !151
  store i32 %49, ptr %50, align 4, !tbaa !12
  %51 = load ptr, ptr %22, align 8, !tbaa !10
  %52 = getelementptr inbounds i8, ptr %51, i64 2
  store ptr %52, ptr %22, align 8, !tbaa !10
  %53 = load ptr, ptr %22, align 8, !tbaa !10
  %54 = call noundef i32 @_ZN6LibRaw5sget4EPh(ptr noundef nonnull align 8 dereferenceable(767680) %24, ptr noundef %53)
  %55 = load ptr, ptr %20, align 8, !tbaa !151
  store i32 %54, ptr %55, align 4, !tbaa !12
  %56 = load ptr, ptr %22, align 8, !tbaa !10
  %57 = getelementptr inbounds i8, ptr %56, i64 4
  store ptr %57, ptr %22, align 8, !tbaa !10
  %58 = load ptr, ptr %18, align 8, !tbaa !151
  %59 = load i32, ptr %58, align 4, !tbaa !12
  %60 = icmp ule i32 %59, 18
  br i1 %60, label %61, label %64

61:                                               ; preds = %40
  %62 = load ptr, ptr %18, align 8, !tbaa !151
  %63 = load i32, ptr %62, align 4, !tbaa !12
  br label %65

64:                                               ; preds = %40
  br label %65

65:                                               ; preds = %64, %61
  %66 = phi i32 [ %63, %61 ], [ 0, %64 ]
  %67 = call noundef i32 @_ZNK21libraw_static_table_tixEj(ptr noundef nonnull align 8 dereferenceable(12) @_ZN6LibRaw22tagtype_dataunit_bytesE, i32 noundef %66)
  %68 = load ptr, ptr %21, align 8, !tbaa !151
  store i32 %67, ptr %68, align 4, !tbaa !12
  %69 = load ptr, ptr %20, align 8, !tbaa !151
  %70 = load i32, ptr %69, align 4, !tbaa !12
  %71 = load ptr, ptr %21, align 8, !tbaa !151
  %72 = load i32, ptr %71, align 4, !tbaa !12
  %73 = mul i32 %70, %72
  %74 = icmp ugt i32 %73, 4
  br i1 %74, label %75, label %93

75:                                               ; preds = %65
  %76 = load ptr, ptr %22, align 8, !tbaa !10
  %77 = call noundef i32 @_ZN6LibRaw5sget4EPh(ptr noundef nonnull align 8 dereferenceable(767680) %24, ptr noundef %76)
  %78 = load i32, ptr %13, align 4, !tbaa !12
  %79 = sub i32 %77, %78
  %80 = zext i32 %79 to i64
  %81 = load ptr, ptr %19, align 8, !tbaa !149
  store i64 %80, ptr %81, align 8, !tbaa !152
  %82 = load ptr, ptr %19, align 8, !tbaa !149
  %83 = load i64, ptr %82, align 8, !tbaa !152
  %84 = load ptr, ptr %20, align 8, !tbaa !151
  %85 = load i32, ptr %84, align 4, !tbaa !12
  %86 = zext i32 %85 to i64
  %87 = add nsw i64 %83, %86
  %88 = load i32, ptr %15, align 4, !tbaa !12
  %89 = zext i32 %88 to i64
  %90 = icmp sgt i64 %87, %89
  br i1 %90, label %91, label %92

91:                                               ; preds = %75
  store i16 -2, ptr %11, align 2
  store i32 1, ptr %23, align 4
  br label %102

92:                                               ; preds = %75
  br label %98

93:                                               ; preds = %65
  %94 = load ptr, ptr %16, align 8, !tbaa !149
  %95 = load i64, ptr %94, align 8, !tbaa !152
  %96 = add nsw i64 %95, 8
  %97 = load ptr, ptr %19, align 8, !tbaa !149
  store i64 %96, ptr %97, align 8, !tbaa !152
  br label %98

98:                                               ; preds = %93, %92
  %99 = load ptr, ptr %16, align 8, !tbaa !149
  %100 = load i64, ptr %99, align 8, !tbaa !152
  %101 = add nsw i64 %100, 12
  store i64 %101, ptr %99, align 8, !tbaa !152
  store i16 0, ptr %11, align 2
  store i32 1, ptr %23, align 4
  br label %102

102:                                              ; preds = %98, %91, %39
  call void @llvm.lifetime.end.p0(i64 8, ptr %22) #18
  %103 = load i16, ptr %11, align 2
  ret i16 %103
}