; Function Attrs: mustprogress uwtable
define noundef signext range(i16 -2, 1) i16 @_ZN6LibRaw9tiff_sgetEjPhjPxPjS2_S1_S2_Pi(ptr noundef nonnull align 8 dereferenceable(767680) %0, i32 noundef %1, ptr noundef %2, i32 noundef %3, ptr noundef captures(none) %4, ptr noundef writeonly captures(none) %5, ptr noundef captures(none) %6, ptr noundef writeonly captures(none) %7, ptr noundef captures(none) %8, ptr noundef writeonly captures(none) %9) local_unnamed_addr #4 align 2 {
  %11 = load i64, ptr %4, align 8, !tbaa !140
  %12 = add nsw i64 %11, 12
  %13 = zext i32 %3 to i64
  %14 = icmp sgt i64 %12, %13
  %15 = icmp slt i64 %11, 0
  %or.cond = or i1 %15, %14
  br i1 %or.cond, label %57, label %16

16:                                               ; preds = %10
  %17 = getelementptr inbounds nuw i8, ptr %2, i64 %11
  %18 = tail call noundef zeroext i16 @_ZN6LibRaw5sget2EPh(ptr noundef nonnull align 8 dereferenceable(767680) %0, ptr noundef %17)
  %19 = zext i16 %18 to i32
  store i32 %19, ptr %5, align 4, !tbaa !122
  %20 = getelementptr inbounds nuw i8, ptr %17, i64 2
  %21 = tail call noundef zeroext i16 @_ZN6LibRaw5sget2EPh(ptr noundef nonnull align 8 dereferenceable(767680) %0, ptr noundef nonnull %20)
  %22 = zext i16 %21 to i32
  store i32 %22, ptr %6, align 4, !tbaa !122
  %23 = getelementptr inbounds nuw i8, ptr %17, i64 4
  %24 = tail call noundef i32 @_ZN6LibRaw5sget4EPh(ptr noundef nonnull align 8 dereferenceable(767680) %0, ptr noundef nonnull %23)
  store i32 %24, ptr %8, align 4, !tbaa !122
  %25 = getelementptr inbounds nuw i8, ptr %17, i64 8
  %26 = load i32, ptr %6, align 4, !tbaa !122
  %27 = icmp ult i32 %26, 19
  %spec.select = select i1 %27, i32 %26, i32 0
  %28 = load i32, ptr getelementptr inbounds nuw (i8, ptr @_ZN6LibRaw22tagtype_dataunit_bytesE, i64 8), align 8, !tbaa !141
  %29 = icmp ult i32 %spec.select, %28
  br i1 %29, label %30, label %35

30:                                               ; preds = %16
  %31 = load ptr, ptr @_ZN6LibRaw22tagtype_dataunit_bytesE, align 8, !tbaa !143
  %32 = zext i32 %spec.select to i64
  %33 = getelementptr inbounds nuw i32, ptr %31, i64 %32
  %34 = load i32, ptr %33, align 4, !tbaa !122
  br label %_ZNK21libraw_static_table_tixEj.exit

35:                                               ; preds = %16
  %.not.i = icmp eq i32 %28, 0
  br i1 %.not.i, label %_ZNK21libraw_static_table_tixEj.exit, label %36

36:                                               ; preds = %35
  %37 = load ptr, ptr @_ZN6LibRaw22tagtype_dataunit_bytesE, align 8, !tbaa !143
  %.not6.i = icmp eq ptr %37, null
  br i1 %.not6.i, label %_ZNK21libraw_static_table_tixEj.exit, label %38

38:                                               ; preds = %36
  %39 = load i32, ptr %37, align 4, !tbaa !122
  br label %_ZNK21libraw_static_table_tixEj.exit

_ZNK21libraw_static_table_tixEj.exit:             ; preds = %30, %35, %36, %38
  %.0.i = phi i32 [ %34, %30 ], [ %39, %38 ], [ 0, %36 ], [ 0, %35 ]
  store i32 %.0.i, ptr %9, align 4, !tbaa !122
  %40 = load i32, ptr %8, align 4, !tbaa !122
  %41 = mul i32 %40, %.0.i
  %42 = icmp ugt i32 %41, 4
  br i1 %42, label %43, label %51

43:                                               ; preds = %_ZNK21libraw_static_table_tixEj.exit
  %44 = tail call noundef i32 @_ZN6LibRaw5sget4EPh(ptr noundef nonnull align 8 dereferenceable(767680) %0, ptr noundef nonnull %25)
  %45 = sub i32 %44, %1
  %46 = zext i32 %45 to i64
  store i64 %46, ptr %7, align 8, !tbaa !140
  %47 = load i32, ptr %8, align 4, !tbaa !122
  %48 = zext i32 %47 to i64
  %49 = add nuw nsw i64 %48, %46
  %50 = icmp samesign ugt i64 %49, %13
  br i1 %50, label %57, label %54

51:                                               ; preds = %_ZNK21libraw_static_table_tixEj.exit
  %52 = load i64, ptr %4, align 8, !tbaa !140
  %53 = add nsw i64 %52, 8
  store i64 %53, ptr %7, align 8, !tbaa !140
  br label %54

54:                                               ; preds = %43, %51
  %55 = load i64, ptr %4, align 8, !tbaa !140
  %56 = add nsw i64 %55, 12
  store i64 %56, ptr %4, align 8, !tbaa !140
  br label %57

57:                                               ; preds = %43, %10, %54
  %.0 = phi i16 [ 0, %54 ], [ -1, %10 ], [ -2, %43 ]
  ret i16 %.0
}